; ModuleID = '23/717.c'
source_filename = "23/717.c"
target datalayout = "e-m:e-p270:32:32-p271:32:32-p272:64:64-i64:64-f80:128-n8:16:32:64-S128"
target triple = "x86_64-pc-linux-gnu"

@.str = private unnamed_addr constant [3 x i8] c"%c\00", align 1
@.str.1 = private unnamed_addr constant [2 x i8] c" \00", align 1

; Function Attrs: noinline nounwind uwtable
define dso_local void @main() #0 {
  %1 = alloca i8*, align 8
  %2 = alloca i32, align 4
  %3 = alloca i32, align 4
  %4 = alloca i32, align 4
  %5 = alloca i32, align 4
  %6 = alloca i32, align 4
  %7 = alloca i32, align 4
  %8 = call noalias i8* @malloc(i64 1000) #4
  store i8* %8, i8** %1, align 8
  %9 = load i8*, i8** %1, align 8
  %10 = call i32 (i8*, ...) bitcast (i32 (...)* @gets to i32 (i8*, ...)*)(i8* %9)
  %11 = load i8*, i8** %1, align 8
  %12 = call i64 @strlen(i8* %11) #5
  %13 = trunc i64 %12 to i32
  store i32 %13, i32* %6, align 4
  %14 = load i32, i32* %6, align 4
  %15 = sub nsw i32 %14, 1
  store i32 %15, i32* %2, align 4
  br label %16

16:                                               ; preds = %30, %0
  %17 = load i32, i32* %2, align 4
  %18 = icmp sgt i32 %17, -1
  br i1 %18, label %19, label %33

19:                                               ; preds = %16
  %20 = load i8*, i8** %1, align 8
  %21 = load i32, i32* %2, align 4
  %22 = sext i32 %21 to i64
  %23 = getelementptr inbounds i8, i8* %20, i64 %22
  %24 = load i8, i8* %23, align 1
  %25 = load i8*, i8** %1, align 8
  %26 = load i32, i32* %2, align 4
  %27 = sext i32 %26 to i64
  %28 = getelementptr inbounds i8, i8* %25, i64 %27
  %29 = getelementptr inbounds i8, i8* %28, i64 1
  store i8 %24, i8* %29, align 1
  br label %30

30:                                               ; preds = %19
  %31 = load i32, i32* %2, align 4
  %32 = add nsw i32 %31, -1
  store i32 %32, i32* %2, align 4
  br label %16

33:                                               ; preds = %16
  %34 = load i8*, i8** %1, align 8
  %35 = load i32, i32* %6, align 4
  %36 = sext i32 %35 to i64
  %37 = getelementptr inbounds i8, i8* %34, i64 %36
  %38 = getelementptr inbounds i8, i8* %37, i64 1
  store i8 32, i8* %38, align 1
  %39 = load i8*, i8** %1, align 8
  %40 = load i32, i32* %6, align 4
  %41 = sext i32 %40 to i64
  %42 = getelementptr inbounds i8, i8* %39, i64 %41
  %43 = getelementptr inbounds i8, i8* %42, i64 2
  store i8 0, i8* %43, align 1
  %44 = load i8*, i8** %1, align 8
  store i8 32, i8* %44, align 1
  %45 = load i32, i32* %6, align 4
  store i32 %45, i32* %2, align 4
  br label %46

46:                                               ; preds = %86, %33
  %47 = load i32, i32* %2, align 4
  %48 = icmp sge i32 %47, 0
  br i1 %48, label %49, label %89

49:                                               ; preds = %46
  %50 = load i8*, i8** %1, align 8
  %51 = load i32, i32* %2, align 4
  %52 = sext i32 %51 to i64
  %53 = getelementptr inbounds i8, i8* %50, i64 %52
  %54 = load i8, i8* %53, align 1
  %55 = sext i8 %54 to i32
  %56 = icmp eq i32 %55, 32
  br i1 %56, label %57, label %85

57:                                               ; preds = %49
  %58 = load i32, i32* %2, align 4
  %59 = add nsw i32 %58, 1
  store i32 %59, i32* %3, align 4
  br label %60

60:                                               ; preds = %76, %57
  %61 = load i8*, i8** %1, align 8
  %62 = load i32, i32* %3, align 4
  %63 = sext i32 %62 to i64
  %64 = getelementptr inbounds i8, i8* %61, i64 %63
  %65 = load i8, i8* %64, align 1
  %66 = sext i8 %65 to i32
  %67 = icmp ne i32 %66, 32
  br i1 %67, label %68, label %79

68:                                               ; preds = %60
  %69 = load i8*, i8** %1, align 8
  %70 = load i32, i32* %3, align 4
  %71 = sext i32 %70 to i64
  %72 = getelementptr inbounds i8, i8* %69, i64 %71
  %73 = load i8, i8* %72, align 1
  %74 = sext i8 %73 to i32
  %75 = call i32 (i8*, ...) @printf(i8* getelementptr inbounds ([3 x i8], [3 x i8]* @.str, i64 0, i64 0), i32 %74)
  br label %76

76:                                               ; preds = %68
  %77 = load i32, i32* %3, align 4
  %78 = add nsw i32 %77, 1
  store i32 %78, i32* %3, align 4
  br label %60

79:                                               ; preds = %60
  %80 = load i32, i32* %2, align 4
  %81 = icmp ne i32 %80, 0
  br i1 %81, label %82, label %84

82:                                               ; preds = %79
  %83 = call i32 (i8*, ...) @printf(i8* getelementptr inbounds ([2 x i8], [2 x i8]* @.str.1, i64 0, i64 0))
  br label %84

84:                                               ; preds = %82, %79
  br label %85

85:                                               ; preds = %84, %49
  br label %86

86:                                               ; preds = %85
  %87 = load i32, i32* %2, align 4
  %88 = add nsw i32 %87, -1
  store i32 %88, i32* %2, align 4
  br label %46

89:                                               ; preds = %46
  ret void
}

; Function Attrs: nounwind
declare dso_local noalias i8* @malloc(i64) #1

declare dso_local i32 @gets(...) #2

; Function Attrs: nounwind readonly
declare dso_local i64 @strlen(i8*) #3

declare dso_local i32 @printf(i8*, ...) #2


!llvm.module.flags = !{!0}
!llvm.ident = !{!1}

!0 = !{i32 1, !"wchar_size", i32 4}
!1 = !{!"clang version 10.0.0-4ubuntu1 "}
